; Function Attrs: nounwind uwtable
define internal range(i32 0, 2) i32 @test_explicit_EVP_CIPHER_fetch_by_X509_ALGOR(i32 noundef %0) #1 {
  %2 = alloca ptr, align 8
  %3 = alloca [50 x i8], align 16
  %4 = tail call ptr @X509_ALGOR_new() #7
  %5 = tail call i32 @test_ptr(ptr noundef nonnull @.str.33, i32 noundef 149, ptr noundef nonnull @.str.58, ptr noundef %4) #7
  %.not.i = icmp eq i32 %5, 0
  br i1 %.not.i, label %make_algor.exit.thread, label %6

6:                                                ; preds = %1
  %7 = tail call ptr @OBJ_nid2obj(i32 noundef 419) #7
  %8 = tail call i32 @X509_ALGOR_set0(ptr noundef %4, ptr noundef %7, i32 noundef -1, ptr noundef null) #7
  %9 = icmp ne i32 %8, 0
  %10 = zext i1 %9 to i32
  %11 = tail call i32 @test_true(ptr noundef nonnull @.str.33, i32 noundef 151, ptr noundef nonnull @.str.59, i32 noundef %10) #7
  %.not4.i = icmp eq i32 %11, 0
  br i1 %.not4.i, label %make_algor.exit.thread, label %make_algor.exit

make_algor.exit.thread:                           ; preds = %1, %6
  tail call void @X509_ALGOR_free(ptr noundef %4) #7
  call void @llvm.lifetime.start.p0(i64 8, ptr nonnull %2) #7
  call void @llvm.lifetime.start.p0(i64 50, ptr nonnull %3) #7
  br label %25

make_algor.exit:                                  ; preds = %6
  call void @llvm.lifetime.start.p0(i64 8, ptr nonnull %2) #7
  call void @llvm.lifetime.start.p0(i64 50, ptr nonnull %3) #7
  call void @llvm.memset.p0.i64(ptr noundef nonnull align 16 dereferenceable(50) %3, i8 0, i64 50, i1 false)
  %12 = icmp eq ptr %4, null
  br i1 %12, label %25, label %13

13:                                               ; preds = %make_algor.exit
  call void @X509_ALGOR_get0(ptr noundef nonnull %2, ptr noundef null, ptr noundef null, ptr noundef nonnull %4) #7
  switch i32 %0, label %22 [
    i32 0, label %14
    i32 1, label %18
  ]

14:                                               ; preds = %13
  %15 = load ptr, ptr %2, align 8, !tbaa !15
  %16 = call i32 @OBJ_obj2txt(ptr noundef nonnull %3, i32 noundef 50, ptr noundef %15, i32 noundef 0) #7
  %17 = call i32 @test_int_gt(ptr noundef nonnull @.str.33, i32 noundef 360, ptr noundef nonnull @.str.56, ptr noundef nonnull @.str.37, i32 noundef %16, i32 noundef 0) #7
  %.not7 = icmp eq i32 %17, 0
  br i1 %.not7, label %24, label %22

18:                                               ; preds = %13
  %19 = load ptr, ptr %2, align 8, !tbaa !15
  %20 = call i32 @OBJ_obj2txt(ptr noundef nonnull %3, i32 noundef 50, ptr noundef %19, i32 noundef 1) #7
  %21 = call i32 @test_int_gt(ptr noundef nonnull @.str.33, i32 noundef 364, ptr noundef nonnull @.str.57, ptr noundef nonnull @.str.37, i32 noundef %20, i32 noundef 0) #7
  %.not = icmp eq i32 %21, 0
  br i1 %.not, label %24, label %22

22:                                               ; preds = %18, %14, %13
  %23 = call fastcc i32 @test_explicit_EVP_CIPHER_fetch(ptr noundef nonnull %3)
  br label %24

24:                                               ; preds = %18, %14, %22
  %.05 = phi i32 [ %23, %22 ], [ 0, %18 ], [ 0, %14 ]
  call void @X509_ALGOR_free(ptr noundef nonnull %4) #7
  br label %25

25:                                               ; preds = %make_algor.exit.thread, %make_algor.exit, %24
  %.0 = phi i32 [ %.05, %24 ], [ 0, %make_algor.exit ], [ 0, %make_algor.exit.thread ]
  call void @llvm.lifetime.end.p0(i64 50, ptr nonnull %3) #7
  call void @llvm.lifetime.end.p0(i64 8, ptr nonnull %2) #7
  ret i32 %.0
}